; Function Attrs: mustprogress nofree norecurse nosync nounwind willreturn memory(read, inaccessiblemem: none) uwtable
define internal fastcc noundef float @_ZL22dd_force_imb_perf_lossP12gmx_domdec_t(ptr noundef readonly captures(none) %0) unnamed_addr #14 {
  %2 = getelementptr inbounds nuw i8, ptr %0, i64 912
  %3 = load ptr, ptr %2, align 8, !tbaa !27
  %4 = getelementptr inbounds nuw i8, ptr %3, i64 1700
  %5 = load i32, ptr %4, align 4, !tbaa !336
  %6 = icmp sgt i32 %5, 0
  br i1 %6, label %7, label %23

7:                                                ; preds = %1
  %8 = getelementptr inbounds nuw i8, ptr %3, i64 1704
  %9 = load double, ptr %8, align 8, !tbaa !343
  %10 = fcmp ogt double %9, 0.000000e+00
  br i1 %10, label %11, label %23

11:                                               ; preds = %7
  %12 = getelementptr inbounds nuw i8, ptr %3, i64 1720
  %13 = load double, ptr %12, align 8, !tbaa !341
  %14 = load i32, ptr %0, align 8, !tbaa !337
  %15 = sitofp i32 %14 to double
  %16 = getelementptr inbounds nuw i8, ptr %3, i64 1712
  %17 = load double, ptr %16, align 8, !tbaa !340
  %18 = fneg double %17
  %19 = tail call double @llvm.fmuladd.f64(double %13, double %15, double %18)
  %20 = fmul double %9, %15
  %21 = fdiv double %19, %20
  %22 = fptrunc double %21 to float
  br label %23

23:                                               ; preds = %1, %7, %11
  %.0 = phi float [ %22, %11 ], [ 0.000000e+00, %7 ], [ 0.000000e+00, %1 ]
  ret float %.0
}